target datalayout = "e-m:e-p270:32:32-p271:32:32-p272:64:64-i64:64-i128:128-f80:128-n8:16:32:64-S128"
target triple = "x86_64-pc-linux-gnu"

%struct.Curl_easy = type { i32, i64, i64, ptr, %struct.Curl_llist_node, %struct.Curl_llist_node, i32, i32, %struct.Curl_message, %struct.easy_pollset, %struct.Names, ptr, ptr, ptr, ptr, %struct.SingleRequest, %struct.UserDefined, ptr, ptr, ptr, %struct.Progress, %struct.UrlState, ptr, %struct.PureInfo, %struct.curl_tlssessioninfo }
%struct.Curl_llist_node = type { ptr, ptr, ptr, ptr }
%struct.Curl_message = type { %struct.Curl_llist_node, %struct.CURLMsg }
%struct.CURLMsg = type { i32, ptr, %union.anon }
%union.anon = type { ptr }
%struct.easy_pollset = type { [5 x i32], i32, [5 x i8] }
%struct.Names = type { ptr, i32 }
%struct.SingleRequest = type <{ i64, i64, i64, i64, %struct.curltime, i32, i32, i32, i32, i64, i32, i32, i8, i8, [2 x i8], i32, ptr, ptr, %struct.bufq, i64, i64, ptr, ptr, %union.anon.0, ptr, i8, i32, [3 x i8] }>
%struct.curltime = type { i64, i32 }
%struct.bufq = type { ptr, ptr, ptr, ptr, i64, i64, i64, i32 }
%union.anon.0 = type { ptr }
%struct.UserDefined = type <{ ptr, ptr, ptr, ptr, ptr, ptr, i64, i64, i64, ptr, ptr, i64, ptr, ptr, ptr, ptr, ptr, ptr, ptr, ptr, ptr, ptr, ptr, ptr, ptr, ptr, ptr, ptr, ptr, ptr, ptr, ptr, ptr, ptr, ptr, i64, i64, i64, i64, i64, i64, i64, i64, i64, ptr, ptr, %struct.curl_mimepart, ptr, ptr, ptr, i64, %struct.ssl_config_data, %struct.ssl_config_data, ptr, i16, i8, i8, %struct.ssl_general_config, i32, i32, i32, [4 x i8], ptr, ptr, i64, i32, i8, i8, i8, i8, ptr, ptr, ptr, i32, [4 x i8], [74 x ptr], [8 x ptr], i32, i32, i32, [4 x i8], ptr, i32, [4 x i8], ptr, ptr, ptr, ptr, ptr, i32, i32, i32, i32, i32, i32, i32, i32, i64, ptr, ptr, i64, ptr, i64, ptr, ptr, ptr, ptr, i32, i16, i16, i16, i8, i8, i8, i8, i8, i8, i8, i8, i64, [6 x i8] }>
%struct.curl_mimepart = type { ptr, ptr, i32, i32, ptr, ptr, ptr, ptr, ptr, ptr, ptr, ptr, ptr, ptr, ptr, i64, %struct.mime_state, ptr, %struct.mime_encoder_state, i64 }
%struct.mime_state = type { i32, ptr, i64 }
%struct.mime_encoder_state = type { i64, i64, i64, [256 x i8] }
%struct.ssl_config_data = type { %struct.ssl_primary_config, i64, ptr, ptr, ptr, ptr, ptr, ptr, ptr, i16 }
%struct.ssl_primary_config = type { ptr, ptr, ptr, ptr, ptr, ptr, ptr, ptr, ptr, ptr, ptr, ptr, ptr, ptr, i8, i32, i8, i8 }
%struct.ssl_general_config = type { i32 }
%struct.Progress = type { i64, %struct.pgrs_dir, %struct.pgrs_dir, i64, i64, i32, i32, i64, i64, i64, i64, i64, i64, i64, i64, i64, %struct.curltime, %struct.curltime, %struct.curltime, %struct.curltime, %struct.curltime, [6 x i64], [6 x %struct.curltime], i32, i8 }
%struct.pgrs_dir = type { i64, i64, i64, %struct.pgrs_measure }
%struct.pgrs_measure = type { %struct.curltime, i64 }
%struct.UrlState = type { %struct.curltime, i64, i64, %struct.dynbuf, ptr, i64, ptr, i32, i32, i32, ptr, i32, i64, i32, ptr, %struct.digestdata, %struct.digestdata, %struct.auth, %struct.auth, %struct.Curl_async, ptr, i8, %struct.curltime, %struct.Curl_tree, %struct.Curl_llist, [15 x %struct.time_node], ptr, ptr, i64, i64, i64, i64, [32 x i8], i64, ptr, ptr, ptr, %struct.urlpieces, ptr, ptr, ptr, ptr, ptr, i64, %struct.dynbuf, %struct.Curl_llist, [2 x %struct.curl_header], ptr, i32, ptr, ptr, %struct.store_netrc, %struct.dynamically_allocated_data, i8, i8, i8, i8, i32 }
%struct.digestdata = type { ptr, ptr, ptr, ptr, ptr, ptr, i32, i8, i8 }
%struct.auth = type { i64, i64, i64, i8 }
%struct.Curl_async = type { ptr, ptr, ptr, ptr, i32, i32, i8 }
%struct.Curl_tree = type { ptr, ptr, ptr, ptr, %struct.curltime, ptr }
%struct.time_node = type { %struct.Curl_llist_node, %struct.curltime, i32 }
%struct.urlpieces = type { ptr, ptr, ptr, ptr, ptr, ptr, ptr, ptr }
%struct.dynbuf = type { ptr, i64, i64, i64 }
%struct.Curl_llist = type { ptr, ptr, ptr, i64 }
%struct.curl_header = type { ptr, ptr, i64, i64, i32, ptr }
%struct.store_netrc = type { %struct.dynbuf, ptr, i8 }
%struct.dynamically_allocated_data = type { ptr, ptr, ptr, ptr, ptr, ptr, ptr, ptr, ptr, ptr, ptr, ptr, ptr, ptr }
%struct.PureInfo = type { i32, i32, i32, i64, i64, i64, i64, i64, i64, i64, ptr, ptr, i64, i32, %struct.ip_quadruple, i32, ptr, i32, %struct.curl_certinfo, i32, i8 }
%struct.ip_quadruple = type { [46 x i8], [46 x i8], i32, i32 }
%struct.curl_certinfo = type { i32, ptr }
%struct.curl_tlssessioninfo = type { i32, ptr }

; Function Attrs: nounwind uwtable
define internal i64 @trspeed(i64 noundef %0, i64 noundef %1) #0 {
  %3 = alloca i64, align 8
  %4 = alloca i64, align 8
  %5 = alloca i64, align 8
  store i64 %0, ptr %4, align 8, !tbaa !85
  store i64 %1, ptr %5, align 8, !tbaa !85
  %6 = load i64, ptr %5, align 8, !tbaa !85
  %7 = icmp slt i64 %6, 1
  br i1 %7, label %8, label %11

8:                                                ; preds = %2
  %9 = load i64, ptr %4, align 8, !tbaa !85
  %10 = mul nsw i64 %9, 1000000
  store i64 %10, ptr %3, align 8
  br label %28

11:                                               ; preds = %2
  %12 = load i64, ptr %4, align 8, !tbaa !85
  %13 = icmp slt i64 %12, 9223372036854
  br i1 %13, label %14, label %19

14:                                               ; preds = %11
  %15 = load i64, ptr %4, align 8, !tbaa !85
  %16 = mul nsw i64 %15, 1000000
  %17 = load i64, ptr %5, align 8, !tbaa !85
  %18 = sdiv i64 %16, %17
  store i64 %18, ptr %3, align 8
  br label %28

19:                                               ; preds = %11
  %20 = load i64, ptr %5, align 8, !tbaa !85
  %21 = icmp sge i64 %20, 1000000
  br i1 %21, label %22, label %27

22:                                               ; preds = %19
  %23 = load i64, ptr %4, align 8, !tbaa !85
  %24 = load i64, ptr %5, align 8, !tbaa !85
  %25 = sdiv i64 %24, 1000000
  %26 = sdiv i64 %23, %25
  store i64 %26, ptr %3, align 8
  br label %28

27:                                               ; preds = %19
  store i64 9223372036854775807, ptr %3, align 8
  br label %28

28:                                               ; preds = %27, %22, %14, %8
  %29 = load i64, ptr %3, align 8
  ret i64 %29
}

; Function Attrs: nounwind uwtable
define internal zeroext i1 @progress_calc(ptr noundef %0, i64 %1, i32 %2) #0 {
  %4 = alloca %struct.curltime, align 8
  %5 = alloca ptr, align 8
  %6 = alloca i8, align 1
  %7 = alloca ptr, align 8
  %8 = alloca i32, align 4
  %9 = alloca i32, align 4
  %10 = alloca i32, align 4
  %11 = alloca i64, align 8
  %12 = alloca i64, align 8
  %13 = getelementptr inbounds nuw { i64, i32 }, ptr %4, i32 0, i32 0
  store i64 %1, ptr %13, align 8
  %14 = getelementptr inbounds nuw { i64, i32 }, ptr %4, i32 0, i32 1
  store i32 %2, ptr %14, align 8
  store ptr %0, ptr %5, align 8, !tbaa !3
  call void @llvm.lifetime.start.p0(i64 1, ptr %6) #5
  store i8 0, ptr %6, align 1, !tbaa !81
  call void @llvm.lifetime.start.p0(i64 8, ptr %7) #5
  %15 = load ptr, ptr %5, align 8, !tbaa !3
  %16 = getelementptr inbounds nuw %struct.Curl_easy, ptr %15, i32 0, i32 20
  store ptr %16, ptr %7, align 8, !tbaa !104
  %17 = load ptr, ptr %7, align 8, !tbaa !104
  %18 = getelementptr inbounds nuw %struct.Progress, ptr %17, i32 0, i32 16
  %19 = getelementptr inbounds nuw { i64, i32 }, ptr %4, i32 0, i32 0
  %20 = load i64, ptr %19, align 8
  %21 = getelementptr inbounds nuw { i64, i32 }, ptr %4, i32 0, i32 1
  %22 = load i32, ptr %21, align 8
  %23 = getelementptr inbounds nuw { i64, i32 }, ptr %18, i32 0, i32 0
  %24 = load i64, ptr %23, align 8
  %25 = getelementptr inbounds nuw { i64, i32 }, ptr %18, i32 0, i32 1
  %26 = load i32, ptr %25, align 8
  %27 = call i64 @Curl_timediff_us(i64 %20, i32 %22, i64 %24, i32 %26)
  %28 = load ptr, ptr %7, align 8, !tbaa !104
  %29 = getelementptr inbounds nuw %struct.Progress, ptr %28, i32 0, i32 7
  store i64 %27, ptr %29, align 8, !tbaa !106
  %30 = load ptr, ptr %7, align 8, !tbaa !104
  %31 = getelementptr inbounds nuw %struct.Progress, ptr %30, i32 0, i32 2
  %32 = getelementptr inbounds nuw %struct.pgrs_dir, ptr %31, i32 0, i32 1
  %33 = load i64, ptr %32, align 8, !tbaa !107
  %34 = load ptr, ptr %7, align 8, !tbaa !104
  %35 = getelementptr inbounds nuw %struct.Progress, ptr %34, i32 0, i32 7
  %36 = load i64, ptr %35, align 8, !tbaa !106
  %37 = call i64 @trspeed(i64 noundef %33, i64 noundef %36)
  %38 = load ptr, ptr %7, align 8, !tbaa !104
  %39 = getelementptr inbounds nuw %struct.Progress, ptr %38, i32 0, i32 2
  %40 = getelementptr inbounds nuw %struct.pgrs_dir, ptr %39, i32 0, i32 2
  store i64 %37, ptr %40, align 8, !tbaa !108
  %41 = load ptr, ptr %7, align 8, !tbaa !104
  %42 = getelementptr inbounds nuw %struct.Progress, ptr %41, i32 0, i32 1
  %43 = getelementptr inbounds nuw %struct.pgrs_dir, ptr %42, i32 0, i32 1
  %44 = load i64, ptr %43, align 8, !tbaa !109
  %45 = load ptr, ptr %7, align 8, !tbaa !104
  %46 = getelementptr inbounds nuw %struct.Progress, ptr %45, i32 0, i32 7
  %47 = load i64, ptr %46, align 8, !tbaa !106
  %48 = call i64 @trspeed(i64 noundef %44, i64 noundef %47)
  %49 = load ptr, ptr %7, align 8, !tbaa !104
  %50 = getelementptr inbounds nuw %struct.Progress, ptr %49, i32 0, i32 1
  %51 = getelementptr inbounds nuw %struct.pgrs_dir, ptr %50, i32 0, i32 2
  store i64 %48, ptr %51, align 8, !tbaa !110
  %52 = load ptr, ptr %7, align 8, !tbaa !104
  %53 = getelementptr inbounds nuw %struct.Progress, ptr %52, i32 0, i32 0
  %54 = load i64, ptr %53, align 8, !tbaa !111
  %55 = getelementptr inbounds nuw %struct.curltime, ptr %4, i32 0, i32 0
  %56 = load i64, ptr %55, align 8, !tbaa !112
  %57 = icmp ne i64 %54, %56
  br i1 %57, label %58, label %181

58:                                               ; preds = %3
  call void @llvm.lifetime.start.p0(i64 4, ptr %8) #5
  call void @llvm.lifetime.start.p0(i64 4, ptr %9) #5
  %59 = load ptr, ptr %7, align 8, !tbaa !104
  %60 = getelementptr inbounds nuw %struct.Progress, ptr %59, i32 0, i32 23
  %61 = load i32, ptr %60, align 8, !tbaa !113
  %62 = srem i32 %61, 6
  store i32 %62, ptr %9, align 4, !tbaa !77
  %63 = getelementptr inbounds nuw %struct.curltime, ptr %4, i32 0, i32 0
  %64 = load i64, ptr %63, align 8, !tbaa !112
  %65 = load ptr, ptr %7, align 8, !tbaa !104
  %66 = getelementptr inbounds nuw %struct.Progress, ptr %65, i32 0, i32 0
  store i64 %64, ptr %66, align 8, !tbaa !111
  store i8 1, ptr %6, align 1, !tbaa !81
  %67 = load ptr, ptr %7, align 8, !tbaa !104
  %68 = getelementptr inbounds nuw %struct.Progress, ptr %67, i32 0, i32 2
  %69 = getelementptr inbounds nuw %struct.pgrs_dir, ptr %68, i32 0, i32 1
  %70 = load i64, ptr %69, align 8, !tbaa !107
  %71 = load ptr, ptr %7, align 8, !tbaa !104
  %72 = getelementptr inbounds nuw %struct.Progress, ptr %71, i32 0, i32 1
  %73 = getelementptr inbounds nuw %struct.pgrs_dir, ptr %72, i32 0, i32 1
  %74 = load i64, ptr %73, align 8, !tbaa !109
  %75 = add nsw i64 %70, %74
  %76 = load ptr, ptr %7, align 8, !tbaa !104
  %77 = getelementptr inbounds nuw %struct.Progress, ptr %76, i32 0, i32 21
  %78 = load i32, ptr %9, align 4, !tbaa !77
  %79 = sext i32 %78 to i64
  %80 = getelementptr inbounds [6 x i64], ptr %77, i64 0, i64 %79
  store i64 %75, ptr %80, align 8, !tbaa !85
  %81 = load ptr, ptr %7, align 8, !tbaa !104
  %82 = getelementptr inbounds nuw %struct.Progress, ptr %81, i32 0, i32 22
  %83 = load i32, ptr %9, align 4, !tbaa !77
  %84 = sext i32 %83 to i64
  %85 = getelementptr inbounds [6 x %struct.curltime], ptr %82, i64 0, i64 %84
  call void @llvm.memcpy.p0.p0.i64(ptr align 8 %85, ptr align 8 %4, i64 16, i1 false), !tbaa.struct !90
  %86 = load ptr, ptr %7, align 8, !tbaa !104
  %87 = getelementptr inbounds nuw %struct.Progress, ptr %86, i32 0, i32 23
  %88 = load i32, ptr %87, align 8, !tbaa !113
  %89 = add nsw i32 %88, 1
  store i32 %89, ptr %87, align 8, !tbaa !113
  %90 = load ptr, ptr %7, align 8, !tbaa !104
  %91 = getelementptr inbounds nuw %struct.Progress, ptr %90, i32 0, i32 23
  %92 = load i32, ptr %91, align 8, !tbaa !113
  %93 = icmp sge i32 %92, 6
  br i1 %93, label %94, label %95

94:                                               ; preds = %58
  br label %99

95:                                               ; preds = %58
  %96 = load ptr, ptr %7, align 8, !tbaa !104
  %97 = getelementptr inbounds nuw %struct.Progress, ptr %96, i32 0, i32 23
  %98 = load i32, ptr %97, align 8, !tbaa !113
  br label %99

99:                                               ; preds = %95, %94
  %100 = phi i32 [ 6, %94 ], [ %98, %95 ]
  %101 = sub nsw i32 %100, 1
  store i32 %101, ptr %8, align 4, !tbaa !77
  %102 = load i32, ptr %8, align 4, !tbaa !77
  %103 = icmp ne i32 %102, 0
  br i1 %103, label %104, label %168

104:                                              ; preds = %99
  call void @llvm.lifetime.start.p0(i64 4, ptr %10) #5
  call void @llvm.lifetime.start.p0(i64 8, ptr %11) #5
  call void @llvm.lifetime.start.p0(i64 8, ptr %12) #5
  %105 = load ptr, ptr %7, align 8, !tbaa !104
  %106 = getelementptr inbounds nuw %struct.Progress, ptr %105, i32 0, i32 23
  %107 = load i32, ptr %106, align 8, !tbaa !113
  %108 = icmp sge i32 %107, 6
  br i1 %108, label %109, label %114

109:                                              ; preds = %104
  %110 = load ptr, ptr %7, align 8, !tbaa !104
  %111 = getelementptr inbounds nuw %struct.Progress, ptr %110, i32 0, i32 23
  %112 = load i32, ptr %111, align 8, !tbaa !113
  %113 = srem i32 %112, 6
  br label %115

114:                                              ; preds = %104
  br label %115

115:                                              ; preds = %114, %109
  %116 = phi i32 [ %113, %109 ], [ 0, %114 ]
  store i32 %116, ptr %10, align 4, !tbaa !77
  %117 = load ptr, ptr %7, align 8, !tbaa !104
  %118 = getelementptr inbounds nuw %struct.Progress, ptr %117, i32 0, i32 22
  %119 = load i32, ptr %10, align 4, !tbaa !77
  %120 = sext i32 %119 to i64
  %121 = getelementptr inbounds [6 x %struct.curltime], ptr %118, i64 0, i64 %120
  %122 = getelementptr inbounds nuw { i64, i32 }, ptr %4, i32 0, i32 0
  %123 = load i64, ptr %122, align 8
  %124 = getelementptr inbounds nuw { i64, i32 }, ptr %4, i32 0, i32 1
  %125 = load i32, ptr %124, align 8
  %126 = getelementptr inbounds nuw { i64, i32 }, ptr %121, i32 0, i32 0
  %127 = load i64, ptr %126, align 8
  %128 = getelementptr inbounds nuw { i64, i32 }, ptr %121, i32 0, i32 1
  %129 = load i32, ptr %128, align 8
  %130 = call i64 @Curl_timediff(i64 %123, i32 %125, i64 %127, i32 %129)
  store i64 %130, ptr %11, align 8, !tbaa !85
  %131 = load i64, ptr %11, align 8, !tbaa !85
  %132 = icmp eq i64 0, %131
  br i1 %132, label %133, label %134

133:                                              ; preds = %115
  store i64 1, ptr %11, align 8, !tbaa !85
  br label %134

134:                                              ; preds = %133, %115
  %135 = load ptr, ptr %7, align 8, !tbaa !104
  %136 = getelementptr inbounds nuw %struct.Progress, ptr %135, i32 0, i32 21
  %137 = load i32, ptr %9, align 4, !tbaa !77
  %138 = sext i32 %137 to i64
  %139 = getelementptr inbounds [6 x i64], ptr %136, i64 0, i64 %138
  %140 = load i64, ptr %139, align 8, !tbaa !85
  %141 = load ptr, ptr %7, align 8, !tbaa !104
  %142 = getelementptr inbounds nuw %struct.Progress, ptr %141, i32 0, i32 21
  %143 = load i32, ptr %10, align 4, !tbaa !77
  %144 = sext i32 %143 to i64
  %145 = getelementptr inbounds [6 x i64], ptr %142, i64 0, i64 %144
  %146 = load i64, ptr %145, align 8, !tbaa !85
  %147 = sub nsw i64 %140, %146
  store i64 %147, ptr %12, align 8, !tbaa !85
  %148 = load i64, ptr %12, align 8, !tbaa !85
  %149 = icmp sgt i64 %148, 4294967
  br i1 %149, label %150, label %160

150:                                              ; preds = %134
  %151 = load i64, ptr %12, align 8, !tbaa !85
  %152 = sitofp i64 %151 to double
  %153 = load i64, ptr %11, align 8, !tbaa !85
  %154 = sitofp i64 %153 to double
  %155 = fdiv double %154, 1.000000e+03
  %156 = fdiv double %152, %155
  %157 = fptosi double %156 to i64
  %158 = load ptr, ptr %7, align 8, !tbaa !104
  %159 = getelementptr inbounds nuw %struct.Progress, ptr %158, i32 0, i32 3
  store i64 %157, ptr %159, align 8, !tbaa !114
  br label %167

160:                                              ; preds = %134
  %161 = load i64, ptr %12, align 8, !tbaa !85
  %162 = mul nsw i64 %161, 1000
  %163 = load i64, ptr %11, align 8, !tbaa !85
  %164 = sdiv i64 %162, %163
  %165 = load ptr, ptr %7, align 8, !tbaa !104
  %166 = getelementptr inbounds nuw %struct.Progress, ptr %165, i32 0, i32 3
  store i64 %164, ptr %166, align 8, !tbaa !114
  br label %167

167:                                              ; preds = %160, %150
  call void @llvm.lifetime.end.p0(i64 8, ptr %12) #5
  call void @llvm.lifetime.end.p0(i64 8, ptr %11) #5
  call void @llvm.lifetime.end.p0(i64 4, ptr %10) #5
  br label %180

168:                                              ; preds = %99
  %169 = load ptr, ptr %7, align 8, !tbaa !104
  %170 = getelementptr inbounds nuw %struct.Progress, ptr %169, i32 0, i32 1
  %171 = getelementptr inbounds nuw %struct.pgrs_dir, ptr %170, i32 0, i32 2
  %172 = load i64, ptr %171, align 8, !tbaa !110
  %173 = load ptr, ptr %7, align 8, !tbaa !104
  %174 = getelementptr inbounds nuw %struct.Progress, ptr %173, i32 0, i32 2
  %175 = getelementptr inbounds nuw %struct.pgrs_dir, ptr %174, i32 0, i32 2
  %176 = load i64, ptr %175, align 8, !tbaa !108
  %177 = add nsw i64 %172, %176
  %178 = load ptr, ptr %7, align 8, !tbaa !104
  %179 = getelementptr inbounds nuw %struct.Progress, ptr %178, i32 0, i32 3
  store i64 %177, ptr %179, align 8, !tbaa !114
  br label %180

180:                                              ; preds = %168, %167
  call void @llvm.lifetime.end.p0(i64 4, ptr %9) #5
  call void @llvm.lifetime.end.p0(i64 4, ptr %8) #5
  br label %181

181:                                              ; preds = %180, %3
  %182 = load i8, ptr %6, align 1, !tbaa !81, !range !83, !noundef !84
  %183 = trunc i8 %182 to i1
  call void @llvm.lifetime.end.p0(i64 8, ptr %7) #5
  call void @llvm.lifetime.end.p0(i64 1, ptr %6) #5
  ret i1 %183
}